; Function Attrs: mustprogress uwtable
define hidden void @_ZN4cvc58internal11CardinalityC2ERKNS0_7IntegerE(ptr noundef nonnull align 8 dereferenceable(16) %0, ptr noundef nonnull align 8 dereferenceable(16) %1) unnamed_addr #4 align 2 personality ptr @__gxx_personality_v0 {
  %3 = alloca %"class.cvc5::internal::Integer", align 8
  tail call void @__gmpz_init_set(ptr noundef nonnull align 8 dereferenceable(16) %0, ptr noundef nonnull align 8 dereferenceable(16) %1)
  call void @llvm.lifetime.start.p0(i64 16, ptr nonnull %3) #15
  invoke void @__gmpz_init_set_ui(ptr noundef nonnull align 8 dereferenceable(16) %3, i64 noundef 1)
          to label %_ZN4cvc58internal7IntegerC2Ei.exit unwind label %9

_ZN4cvc58internal7IntegerC2Ei.exit:               ; preds = %2
  %4 = invoke noundef nonnull align 8 dereferenceable(16) ptr @_ZN4cvc58internal7IntegerpLERKS1_(ptr noundef nonnull align 8 dereferenceable(16) %0, ptr noundef nonnull align 8 dereferenceable(16) %3)
          to label %5 unwind label %11

5:                                                ; preds = %_ZN4cvc58internal7IntegerC2Ei.exit
  invoke void @__gmpz_clear(ptr noundef nonnull align 8 dereferenceable(16) %3)
          to label %_ZN4cvc58internal7IntegerD2Ev.exit unwind label %6

6:                                                ; preds = %5
  %7 = landingpad { ptr, i32 }
          catch ptr null
  %8 = extractvalue { ptr, i32 } %7, 0
  call void @__clang_call_terminate(ptr %8) #14
  unreachable

_ZN4cvc58internal7IntegerD2Ev.exit:               ; preds = %5
  call void @llvm.lifetime.end.p0(i64 16, ptr nonnull %3) #15
  ret void

9:                                                ; preds = %2
  %10 = landingpad { ptr, i32 }
          cleanup
  br label %_ZN4cvc58internal7IntegerD2Ev.exit5

11:                                               ; preds = %_ZN4cvc58internal7IntegerC2Ei.exit
  %12 = landingpad { ptr, i32 }
          cleanup
  invoke void @__gmpz_clear(ptr noundef nonnull align 8 dereferenceable(16) %3)
          to label %_ZN4cvc58internal7IntegerD2Ev.exit5 unwind label %13

13:                                               ; preds = %11
  %14 = landingpad { ptr, i32 }
          catch ptr null
  %15 = extractvalue { ptr, i32 } %14, 0
  call void @__clang_call_terminate(ptr %15) #14
  unreachable

_ZN4cvc58internal7IntegerD2Ev.exit5:              ; preds = %11, %9
  %.pn = phi { ptr, i32 } [ %10, %9 ], [ %12, %11 ]
  call void @llvm.lifetime.end.p0(i64 16, ptr nonnull %3) #15
  invoke void @__gmpz_clear(ptr noundef nonnull align 8 dereferenceable(16) %0)
          to label %_ZN4cvc58internal7IntegerD2Ev.exit6 unwind label %16

16:                                               ; preds = %_ZN4cvc58internal7IntegerD2Ev.exit5
  %17 = landingpad { ptr, i32 }
          catch ptr null
  %18 = extractvalue { ptr, i32 } %17, 0
  call void @__clang_call_terminate(ptr %18) #14
  unreachable

_ZN4cvc58internal7IntegerD2Ev.exit6:              ; preds = %_ZN4cvc58internal7IntegerD2Ev.exit5
  resume { ptr, i32 } %.pn
}